; Function Attrs: nounwind uwtable
define internal noalias ptr @x25519_newctx(ptr readnone captures(none) %0) #0 {
  %2 = tail call i32 @ossl_prov_is_running() #4
  %.not.i = icmp eq i32 %2, 0
  br i1 %.not.i, label %ecx_newctx.exit, label %3

3:                                                ; preds = %1
  %4 = tail call noalias ptr @CRYPTO_zalloc(i64 noundef 24, ptr noundef nonnull @.str, i32 noundef 52) #4
  %5 = icmp eq ptr %4, null
  br i1 %5, label %ecx_newctx.exit, label %6

6:                                                ; preds = %3
  store i64 32, ptr %4, align 8, !tbaa !3
  br label %ecx_newctx.exit

ecx_newctx.exit:                                  ; preds = %1, %3, %6
  %.0.i = phi ptr [ %4, %6 ], [ null, %1 ], [ null, %3 ]
  ret ptr %.0.i
}